; Function Attrs: nounwind uwtable
define internal fastcc noundef ptr @sweeptolive(ptr noundef %0, ptr noundef captures(address, ret: address, provenance) %1) unnamed_addr #0 {
  %3 = getelementptr inbounds nuw i8, ptr %0, i64 24
  br label %4

4:                                                ; preds = %sweeplist.exit, %2
  %.0 = phi ptr [ %1, %2 ], [ %24, %sweeplist.exit ]
  %5 = load ptr, ptr %3, align 8, !tbaa !4
  %6 = getelementptr inbounds nuw i8, ptr %5, i64 106
  %7 = load i8, ptr %6, align 2, !tbaa !30
  %8 = xor i8 %7, 24
  %9 = and i8 %7, 24
  %10 = load ptr, ptr %.0, align 8, !tbaa !46
  %.not21.i = icmp eq ptr %10, null
  br i1 %.not21.i, label %sweeplist.exit, label %.lr.ph.i

.lr.ph.i:                                         ; preds = %4, %22
  %11 = phi ptr [ %23, %22 ], [ %10, %4 ]
  %.023.i = phi ptr [ %.1.i, %22 ], [ %.0, %4 ]
  %.01822.i = phi i64 [ %12, %22 ], [ 1, %4 ]
  %12 = add nsw i64 %.01822.i, -1
  %.not = icmp eq i64 %.01822.i, 0
  br i1 %.not, label %sweeplist.exit, label %13

13:                                               ; preds = %.lr.ph.i
  %14 = getelementptr inbounds nuw i8, ptr %11, i64 9
  %15 = load i8, ptr %14, align 1, !tbaa !27
  %16 = and i8 %15, %8
  %.not20.i = icmp eq i8 %16, 0
  br i1 %.not20.i, label %19, label %17

17:                                               ; preds = %13
  %18 = load ptr, ptr %11, align 8, !tbaa !47
  store ptr %18, ptr %.023.i, align 8, !tbaa !46
  tail call fastcc void @freeobj(ptr noundef %0, ptr noundef nonnull %11)
  br label %22

19:                                               ; preds = %13
  %20 = and i8 %15, -64
  %21 = or disjoint i8 %20, %9
  store i8 %21, ptr %14, align 1, !tbaa !27
  br label %22

22:                                               ; preds = %19, %17
  %.1.i = phi ptr [ %.023.i, %17 ], [ %11, %19 ]
  %23 = load ptr, ptr %.1.i, align 8, !tbaa !46
  %.not.i = icmp eq ptr %23, null
  br i1 %.not.i, label %sweeplist.exit, label %.lr.ph.i

sweeplist.exit:                                   ; preds = %.lr.ph.i, %22, %4
  %24 = phi ptr [ null, %4 ], [ %.023.i, %.lr.ph.i ], [ null, %22 ]
  %25 = icmp eq ptr %24, %1
  br i1 %25, label %4, label %26

26:                                               ; preds = %sweeplist.exit
  ret ptr %24
}